target datalayout = "e-m:e-p270:32:32-p271:32:32-p272:64:64-i64:64-i128:128-f80:128-n8:16:32:64-S128"
target triple = "x86_64-pc-linux-gnu"

%struct.tMPI_Atomic = type { i32, [60 x i8] }
%struct.tMPI_Event_t = type { %struct.tMPI_Atomic, i32 }
%struct.coll_sync = type { i32, i32, ptr, i32 }

; Function Attrs: mustprogress uwtable
define noundef i32 @_Z19tMPI_Coll_sync_initP9coll_synci(ptr noundef %0, i32 noundef %1) #0 {
  %3 = alloca i32, align 4
  %4 = alloca ptr, align 8
  %5 = alloca i32, align 4
  %6 = alloca i32, align 4
  %7 = alloca i32, align 4
  store ptr %0, ptr %4, align 8, !tbaa !33
  store i32 %1, ptr %5, align 4, !tbaa !8
  call void @llvm.lifetime.start.p0(i64 4, ptr %6) #7
  %8 = load ptr, ptr %4, align 8, !tbaa !33
  %9 = getelementptr inbounds nuw %struct.coll_sync, ptr %8, i32 0, i32 0
  store i32 0, ptr %9, align 8, !tbaa !35
  %10 = load ptr, ptr %4, align 8, !tbaa !33
  %11 = getelementptr inbounds nuw %struct.coll_sync, ptr %10, i32 0, i32 1
  store i32 0, ptr %11, align 4, !tbaa !38
  %12 = load i32, ptr %5, align 4, !tbaa !8
  %13 = load ptr, ptr %4, align 8, !tbaa !33
  %14 = getelementptr inbounds nuw %struct.coll_sync, ptr %13, i32 0, i32 3
  store i32 %12, ptr %14, align 8, !tbaa !39
  %15 = load i32, ptr %5, align 4, !tbaa !8
  %16 = sext i32 %15 to i64
  %17 = mul i64 68, %16
  %18 = call noundef ptr @_Z11tMPI_Mallocm(i64 noundef %17)
  %19 = load ptr, ptr %4, align 8, !tbaa !33
  %20 = getelementptr inbounds nuw %struct.coll_sync, ptr %19, i32 0, i32 2
  store ptr %18, ptr %20, align 8, !tbaa !40
  %21 = load ptr, ptr %4, align 8, !tbaa !33
  %22 = getelementptr inbounds nuw %struct.coll_sync, ptr %21, i32 0, i32 2
  %23 = load ptr, ptr %22, align 8, !tbaa !40
  %24 = icmp eq ptr %23, null
  br i1 %24, label %25, label %26

25:                                               ; preds = %2
  store i32 1, ptr %3, align 4
  store i32 1, ptr %7, align 4
  br label %42

26:                                               ; preds = %2
  store i32 0, ptr %6, align 4, !tbaa !8
  br label %27

27:                                               ; preds = %38, %26
  %28 = load i32, ptr %6, align 4, !tbaa !8
  %29 = load i32, ptr %5, align 4, !tbaa !8
  %30 = icmp slt i32 %28, %29
  br i1 %30, label %31, label %41

31:                                               ; preds = %27
  %32 = load ptr, ptr %4, align 8, !tbaa !33
  %33 = getelementptr inbounds nuw %struct.coll_sync, ptr %32, i32 0, i32 2
  %34 = load ptr, ptr %33, align 8, !tbaa !40
  %35 = load i32, ptr %6, align 4, !tbaa !8
  %36 = sext i32 %35 to i64
  %37 = getelementptr inbounds %struct.tMPI_Event_t, ptr %34, i64 %36
  call void @_Z15tMPI_Event_initP12tMPI_Event_t(ptr noundef %37)
  br label %38

38:                                               ; preds = %31
  %39 = load i32, ptr %6, align 4, !tbaa !8
  %40 = add nsw i32 %39, 1
  store i32 %40, ptr %6, align 4, !tbaa !8
  br label %27, !llvm.loop !41

41:                                               ; preds = %27
  store i32 0, ptr %3, align 4
  store i32 1, ptr %7, align 4
  br label %42

42:                                               ; preds = %41, %25
  call void @llvm.lifetime.end.p0(i64 4, ptr %6) #7
  %43 = load i32, ptr %3, align 4
  ret i32 %43
}