; Function Attrs: mustprogress uwtable
define noundef range(i32 0, 2) i32 @_Z19tMPI_Coll_sync_initP9coll_synci(ptr noundef captures(none) initializes((0, 20)) %0, i32 noundef %1) local_unnamed_addr #0 {
  store i32 0, ptr %0, align 8, !tbaa !29
  %3 = getelementptr inbounds nuw i8, ptr %0, i64 4
  store i32 0, ptr %3, align 4, !tbaa !32
  %4 = getelementptr inbounds nuw i8, ptr %0, i64 16
  store i32 %1, ptr %4, align 8, !tbaa !33
  %5 = sext i32 %1 to i64
  %6 = mul nsw i64 %5, 68
  %7 = tail call noundef ptr @_Z11tMPI_Mallocm(i64 noundef %6)
  %8 = getelementptr inbounds nuw i8, ptr %0, i64 8
  store ptr %7, ptr %8, align 8, !tbaa !34
  %9 = icmp eq ptr %7, null
  br i1 %9, label %.loopexit, label %.preheader

.preheader:                                       ; preds = %2
  %10 = icmp sgt i32 %1, 0
  br i1 %10, label %.lr.ph.preheader, label %.loopexit

.lr.ph.preheader:                                 ; preds = %.preheader
  %wide.trip.count = zext nneg i32 %1 to i64
  br label %.lr.ph

.lr.ph:                                           ; preds = %.lr.ph.preheader, %.lr.ph
  %indvars.iv = phi i64 [ 0, %.lr.ph.preheader ], [ %indvars.iv.next, %.lr.ph ]
  %11 = load ptr, ptr %8, align 8, !tbaa !34
  %12 = getelementptr inbounds nuw %struct.tMPI_Event_t, ptr %11, i64 %indvars.iv
  tail call void @_Z15tMPI_Event_initP12tMPI_Event_t(ptr noundef %12)
  %indvars.iv.next = add nuw nsw i64 %indvars.iv, 1
  %exitcond.not = icmp eq i64 %indvars.iv.next, %wide.trip.count
  br i1 %exitcond.not, label %.loopexit, label %.lr.ph, !llvm.loop !35

.loopexit:                                        ; preds = %.lr.ph, %.preheader, %2
  %.012 = phi i32 [ 1, %2 ], [ 0, %.preheader ], [ 0, %.lr.ph ]
  ret i32 %.012
}